target datalayout = "e-m:e-p270:32:32-p271:32:32-p272:64:64-i64:64-i128:128-f80:128-n8:16:32:64-S128"
target triple = "x86_64-unknown-linux-gnu"

; Function Attrs: nounwind uwtable
define hidden i32 @X509_NAME_print_ex(ptr noundef %out, ptr noundef %nm, i32 noundef %indent, i64 noundef %flags) #0 {
entry:
  %retval = alloca i32, align 4
  %out.addr = alloca ptr, align 8
  %nm.addr = alloca ptr, align 8
  %indent.addr = alloca i32, align 4
  %flags.addr = alloca i64, align 8
  store ptr %out, ptr %out.addr, align 8
  store ptr %nm, ptr %nm.addr, align 8
  store i32 %indent, ptr %indent.addr, align 4
  store i64 %flags, ptr %flags.addr, align 8
  %0 = load i64, ptr %flags.addr, align 8
  %cmp = icmp eq i64 %0, 0
  br i1 %cmp, label %if.then, label %if.end

if.then:                                          ; preds = %entry
  %1 = load ptr, ptr %out.addr, align 8
  %2 = load ptr, ptr %nm.addr, align 8
  %3 = load i32, ptr %indent.addr, align 4
  %call = call i32 @X509_NAME_print(ptr noundef %1, ptr noundef %2, i32 noundef %3)
  store i32 %call, ptr %retval, align 4
  br label %return

if.end:                                           ; preds = %entry
  %4 = load ptr, ptr %out.addr, align 8
  %5 = load ptr, ptr %nm.addr, align 8
  %6 = load i32, ptr %indent.addr, align 4
  %7 = load i64, ptr %flags.addr, align 8
  %call1 = call i32 @do_name_ex(ptr noundef @send_bio_chars, ptr noundef %4, ptr noundef %5, i32 noundef %6, i64 noundef %7)
  store i32 %call1, ptr %retval, align 4
  br label %return

return:                                           ; preds = %if.end, %if.then
  %8 = load i32, ptr %retval, align 4
  ret i32 %8
}