; Function Attrs: nounwind uwtable
define hidden i32 @X509_NAME_print_ex(ptr noundef %out, ptr noundef %nm, i32 noundef %indent, i64 noundef %flags) local_unnamed_addr #0 {
entry:
  %cmp = icmp eq i64 %flags, 0
  br i1 %cmp, label %if.then, label %if.end

if.then:                                          ; preds = %entry
  %call = tail call i32 @X509_NAME_print(ptr noundef %out, ptr noundef %nm, i32 noundef %indent) #10
  br label %return

if.end:                                           ; preds = %entry
  %call1 = tail call fastcc i32 @do_name_ex(ptr noundef nonnull @send_bio_chars, ptr noundef %out, ptr noundef %nm, i32 noundef %indent, i64 noundef %flags)
  br label %return

return:                                           ; preds = %if.end, %if.then
  %retval.0 = phi i32 [ %call, %if.then ], [ %call1, %if.end ]
  ret i32 %retval.0
}